; Function Attrs: mustprogress uwtable
define hidden void @_ZN3euf6egraph9push_todoEPNS_5enodeE(ptr noundef nonnull align 8 dereferenceable(536) %0, ptr noundef %1) local_unnamed_addr #3 align 2 {
  %.not2 = icmp eq ptr %1, null
  br i1 %.not2, label %._crit_edge, label %.lr.ph

.lr.ph:                                           ; preds = %2
  %3 = getelementptr inbounds nuw i8, ptr %0, i64 304
  %.pre = load ptr, ptr %3, align 8, !tbaa !112
  br label %4

4:                                                ; preds = %.lr.ph, %_ZN6vectorIPN3euf5enodeELb0EjE9push_backERKS2_.exit
  %5 = phi ptr [ %.pre, %.lr.ph ], [ %14, %_ZN6vectorIPN3euf5enodeELb0EjE9push_backERKS2_.exit ]
  %storemerge3 = phi ptr [ %1, %.lr.ph ], [ %21, %_ZN6vectorIPN3euf5enodeELb0EjE9push_backERKS2_.exit ]
  %6 = icmp eq ptr %5, null
  br i1 %6, label %13, label %7

7:                                                ; preds = %4
  %8 = getelementptr inbounds i8, ptr %5, i64 -4
  %9 = load i32, ptr %8, align 4, !tbaa !113
  %10 = getelementptr inbounds i8, ptr %5, i64 -8
  %11 = load i32, ptr %10, align 4, !tbaa !113
  %12 = icmp eq i32 %9, %11
  br i1 %12, label %13, label %_ZN6vectorIPN3euf5enodeELb0EjE9push_backERKS2_.exit

13:                                               ; preds = %7, %4
  tail call void @_ZN6vectorIPN3euf5enodeELb0EjE13expand_vectorEv(ptr noundef nonnull align 8 dereferenceable(8) %3)
  %.pre.i = load ptr, ptr %3, align 8, !tbaa !112
  %.phi.trans.insert.i = getelementptr inbounds i8, ptr %.pre.i, i64 -4
  %.pre2.i = load i32, ptr %.phi.trans.insert.i, align 4, !tbaa !113
  br label %_ZN6vectorIPN3euf5enodeELb0EjE9push_backERKS2_.exit

_ZN6vectorIPN3euf5enodeELb0EjE9push_backERKS2_.exit: ; preds = %7, %13
  %14 = phi ptr [ %.pre.i, %13 ], [ %5, %7 ]
  %15 = phi i32 [ %.pre2.i, %13 ], [ %9, %7 ]
  %16 = getelementptr inbounds i8, ptr %14, i64 -4
  %17 = zext i32 %15 to i64
  %18 = getelementptr inbounds nuw ptr, ptr %14, i64 %17
  store ptr %storemerge3, ptr %18, align 8, !tbaa !47
  %19 = add i32 %15, 1
  store i32 %19, ptr %16, align 4, !tbaa !113
  %20 = getelementptr inbounds nuw i8, ptr %storemerge3, i64 72
  %21 = load ptr, ptr %20, align 8, !tbaa !263
  %.not = icmp eq ptr %21, null
  br i1 %.not, label %._crit_edge, label %4, !llvm.loop !286

._crit_edge:                                      ; preds = %_ZN6vectorIPN3euf5enodeELb0EjE9push_backERKS2_.exit, %2
  ret void
}